
Project.elf:     file format elf32-avr

Sections:
Idx Name          Size      VMA       LMA       File off  Algn
  0 .data         0000000a  00800100  000004cc  00000560  2**0
                  CONTENTS, ALLOC, LOAD, DATA
  1 .text         000004cc  00000000  00000000  00000094  2**1
                  CONTENTS, ALLOC, LOAD, READONLY, CODE
  2 .bss          00000008  0080010a  0080010a  0000056a  2**0
                  ALLOC
  3 .comment      00000030  00000000  00000000  0000056a  2**0
                  CONTENTS, READONLY
  4 .note.gnu.avr.deviceinfo 00000040  00000000  00000000  0000059c  2**2
                  CONTENTS, READONLY
  5 .debug_aranges 000000a8  00000000  00000000  000005dc  2**0
                  CONTENTS, READONLY, DEBUGGING
  6 .debug_info   00000ad7  00000000  00000000  00000684  2**0
                  CONTENTS, READONLY, DEBUGGING
  7 .debug_abbrev 00000804  00000000  00000000  0000115b  2**0
                  CONTENTS, READONLY, DEBUGGING
  8 .debug_line   000004c3  00000000  00000000  0000195f  2**0
                  CONTENTS, READONLY, DEBUGGING
  9 .debug_frame  00000190  00000000  00000000  00001e24  2**2
                  CONTENTS, READONLY, DEBUGGING
 10 .debug_str    00000493  00000000  00000000  00001fb4  2**0
                  CONTENTS, READONLY, DEBUGGING
 11 .debug_loc    00000203  00000000  00000000  00002447  2**0
                  CONTENTS, READONLY, DEBUGGING
 12 .debug_ranges 00000090  00000000  00000000  0000264a  2**0
                  CONTENTS, READONLY, DEBUGGING

Disassembly of section .text:

00000000 <__vectors>:
   0:	0c 94 34 00 	jmp	0x68	; 0x68 <__ctors_end>
   4:	0c 94 5a 01 	jmp	0x2b4	; 0x2b4 <__vector_1>
   8:	0c 94 78 01 	jmp	0x2f0	; 0x2f0 <__vector_2>
   c:	0c 94 51 00 	jmp	0xa2	; 0xa2 <__bad_interrupt>
  10:	0c 94 51 00 	jmp	0xa2	; 0xa2 <__bad_interrupt>
  14:	0c 94 51 00 	jmp	0xa2	; 0xa2 <__bad_interrupt>
  18:	0c 94 51 00 	jmp	0xa2	; 0xa2 <__bad_interrupt>
  1c:	0c 94 51 00 	jmp	0xa2	; 0xa2 <__bad_interrupt>
  20:	0c 94 51 00 	jmp	0xa2	; 0xa2 <__bad_interrupt>
  24:	0c 94 51 00 	jmp	0xa2	; 0xa2 <__bad_interrupt>
  28:	0c 94 51 00 	jmp	0xa2	; 0xa2 <__bad_interrupt>
  2c:	0c 94 51 00 	jmp	0xa2	; 0xa2 <__bad_interrupt>
  30:	0c 94 51 00 	jmp	0xa2	; 0xa2 <__bad_interrupt>
  34:	0c 94 51 00 	jmp	0xa2	; 0xa2 <__bad_interrupt>
  38:	0c 94 11 01 	jmp	0x222	; 0x222 <__vector_14>
  3c:	0c 94 51 00 	jmp	0xa2	; 0xa2 <__bad_interrupt>
  40:	0c 94 51 00 	jmp	0xa2	; 0xa2 <__bad_interrupt>
  44:	0c 94 51 00 	jmp	0xa2	; 0xa2 <__bad_interrupt>
  48:	0c 94 51 00 	jmp	0xa2	; 0xa2 <__bad_interrupt>
  4c:	0c 94 51 00 	jmp	0xa2	; 0xa2 <__bad_interrupt>
  50:	0c 94 51 00 	jmp	0xa2	; 0xa2 <__bad_interrupt>
  54:	0c 94 51 00 	jmp	0xa2	; 0xa2 <__bad_interrupt>
  58:	0c 94 51 00 	jmp	0xa2	; 0xa2 <__bad_interrupt>
  5c:	0c 94 51 00 	jmp	0xa2	; 0xa2 <__bad_interrupt>
  60:	0c 94 51 00 	jmp	0xa2	; 0xa2 <__bad_interrupt>
  64:	0c 94 51 00 	jmp	0xa2	; 0xa2 <__bad_interrupt>

00000068 <__ctors_end>:
  68:	11 24       	eor	r1, r1
  6a:	1f be       	out	0x3f, r1	; 63
  6c:	cf ef       	ldi	r28, 0xFF	; 255
  6e:	d8 e0       	ldi	r29, 0x08	; 8
  70:	de bf       	out	0x3e, r29	; 62
  72:	cd bf       	out	0x3d, r28	; 61

00000074 <__do_copy_data>:
  74:	11 e0       	ldi	r17, 0x01	; 1
  76:	a0 e0       	ldi	r26, 0x00	; 0
  78:	b1 e0       	ldi	r27, 0x01	; 1
  7a:	ec ec       	ldi	r30, 0xCC	; 204
  7c:	f4 e0       	ldi	r31, 0x04	; 4
  7e:	02 c0       	rjmp	.+4      	; 0x84 <__do_copy_data+0x10>
  80:	05 90       	lpm	r0, Z+
  82:	0d 92       	st	X+, r0
  84:	aa 30       	cpi	r26, 0x0A	; 10
  86:	b1 07       	cpc	r27, r17
  88:	d9 f7       	brne	.-10     	; 0x80 <__do_copy_data+0xc>

0000008a <__do_clear_bss>:
  8a:	21 e0       	ldi	r18, 0x01	; 1
  8c:	aa e0       	ldi	r26, 0x0A	; 10
  8e:	b1 e0       	ldi	r27, 0x01	; 1
  90:	01 c0       	rjmp	.+2      	; 0x94 <.do_clear_bss_start>

00000092 <.do_clear_bss_loop>:
  92:	1d 92       	st	X+, r1

00000094 <.do_clear_bss_start>:
  94:	a2 31       	cpi	r26, 0x12	; 18
  96:	b2 07       	cpc	r27, r18
  98:	e1 f7       	brne	.-8      	; 0x92 <.do_clear_bss_loop>
  9a:	0e 94 b8 01 	call	0x370	; 0x370 <main>
  9e:	0c 94 64 02 	jmp	0x4c8	; 0x4c8 <_exit>

000000a2 <__bad_interrupt>:
  a2:	0c 94 00 00 	jmp	0	; 0x0 <__vectors>

000000a6 <pinSet>:
int contor_on = 0;		//contor pentru masurarea duratei de timp in care LED-urile sunt aprinse
int secunde = 0;

void pinSet(volatile uint8_t *port, uint8_t pin){
	
	*port |=  1 << pin;
  a6:	fc 01       	movw	r30, r24
  a8:	40 81       	ld	r20, Z
  aa:	21 e0       	ldi	r18, 0x01	; 1
  ac:	30 e0       	ldi	r19, 0x00	; 0
  ae:	02 c0       	rjmp	.+4      	; 0xb4 <pinSet+0xe>
  b0:	22 0f       	add	r18, r18
  b2:	33 1f       	adc	r19, r19
  b4:	6a 95       	dec	r22
  b6:	e2 f7       	brpl	.-8      	; 0xb0 <pinSet+0xa>
  b8:	24 2b       	or	r18, r20
  ba:	20 83       	st	Z, r18
  bc:	08 95       	ret

000000be <pinReset>:
}

void pinReset(volatile uint8_t *port, uint8_t pin){
  be:	fc 01       	movw	r30, r24
	
	*port &=  ~(1 << pin);
  c0:	90 81       	ld	r25, Z
  c2:	21 e0       	ldi	r18, 0x01	; 1
  c4:	30 e0       	ldi	r19, 0x00	; 0
  c6:	02 c0       	rjmp	.+4      	; 0xcc <pinReset+0xe>
  c8:	22 0f       	add	r18, r18
  ca:	33 1f       	adc	r19, r19
  cc:	6a 95       	dec	r22
  ce:	e2 f7       	brpl	.-8      	; 0xc8 <pinReset+0xa>
  d0:	20 95       	com	r18
  d2:	29 23       	and	r18, r25
  d4:	20 83       	st	Z, r18
  d6:	08 95       	ret

000000d8 <ledOn>:
}

void ledOn(){
	
	if(secunde % 2 == 0)		//testare timer
  d8:	80 91 0a 01 	lds	r24, 0x010A	; 0x80010a <__data_end>
  dc:	80 fd       	sbrc	r24, 0
  de:	05 c0       	rjmp	.+10     	; 0xea <ledOn+0x12>
		pinSet(&PORTB, PINB0);
  e0:	60 e0       	ldi	r22, 0x00	; 0
  e2:	85 e2       	ldi	r24, 0x25	; 37
  e4:	90 e0       	ldi	r25, 0x00	; 0
  e6:	0e 94 53 00 	call	0xa6	; 0xa6 <pinSet>
	
	if(flag_on == 1){		//aprindere LED-uri la apasarea butonului
  ea:	80 91 10 01 	lds	r24, 0x0110	; 0x800110 <flag_on>
  ee:	90 91 11 01 	lds	r25, 0x0111	; 0x800111 <flag_on+0x1>
  f2:	01 97       	sbiw	r24, 0x01	; 1
  f4:	a9 f4       	brne	.+42     	; 0x120 <ledOn+0x48>
		pinSet(&PORTB, PINB0);
  f6:	60 e0       	ldi	r22, 0x00	; 0
  f8:	85 e2       	ldi	r24, 0x25	; 37
  fa:	90 e0       	ldi	r25, 0x00	; 0
  fc:	0e 94 53 00 	call	0xa6	; 0xa6 <pinSet>
		pinSet(&PORTB, PINB1);
 100:	61 e0       	ldi	r22, 0x01	; 1
 102:	85 e2       	ldi	r24, 0x25	; 37
 104:	90 e0       	ldi	r25, 0x00	; 0
 106:	0e 94 53 00 	call	0xa6	; 0xa6 <pinSet>
		pinSet(&PORTB, PINB2);
 10a:	62 e0       	ldi	r22, 0x02	; 2
 10c:	85 e2       	ldi	r24, 0x25	; 37
 10e:	90 e0       	ldi	r25, 0x00	; 0
 110:	0e 94 53 00 	call	0xa6	; 0xa6 <pinSet>
		pinSet(&PORTB, PINB3);
 114:	63 e0       	ldi	r22, 0x03	; 3
 116:	85 e2       	ldi	r24, 0x25	; 37
 118:	90 e0       	ldi	r25, 0x00	; 0
 11a:	0e 94 53 00 	call	0xa6	; 0xa6 <pinSet>
 11e:	14 c0       	rjmp	.+40     	; 0x148 <ledOn+0x70>
	}
	else{
		pinReset(&PORTB, PINB0);	
 120:	60 e0       	ldi	r22, 0x00	; 0
 122:	85 e2       	ldi	r24, 0x25	; 37
 124:	90 e0       	ldi	r25, 0x00	; 0
 126:	0e 94 5f 00 	call	0xbe	; 0xbe <pinReset>
		pinReset(&PORTB, PINB1);
 12a:	61 e0       	ldi	r22, 0x01	; 1
 12c:	85 e2       	ldi	r24, 0x25	; 37
 12e:	90 e0       	ldi	r25, 0x00	; 0
 130:	0e 94 5f 00 	call	0xbe	; 0xbe <pinReset>
		pinReset(&PORTB, PINB2);
 134:	62 e0       	ldi	r22, 0x02	; 2
 136:	85 e2       	ldi	r24, 0x25	; 37
 138:	90 e0       	ldi	r25, 0x00	; 0
 13a:	0e 94 5f 00 	call	0xbe	; 0xbe <pinReset>
		pinReset(&PORTB, PINB3);
 13e:	63 e0       	ldi	r22, 0x03	; 3
 140:	85 e2       	ldi	r24, 0x25	; 37
 142:	90 e0       	ldi	r25, 0x00	; 0
 144:	0e 94 5f 00 	call	0xbe	; 0xbe <pinReset>
	}
	
	if((secunde - contor_on) >= TIMP_ON) //LED-urile raman aprinse un timp TIMP_ON
 148:	80 91 0a 01 	lds	r24, 0x010A	; 0x80010a <__data_end>
 14c:	90 91 0b 01 	lds	r25, 0x010B	; 0x80010b <__data_end+0x1>
 150:	20 91 0c 01 	lds	r18, 0x010C	; 0x80010c <contor_on>
 154:	30 91 0d 01 	lds	r19, 0x010D	; 0x80010d <contor_on+0x1>
 158:	82 1b       	sub	r24, r18
 15a:	93 0b       	sbc	r25, r19
 15c:	04 97       	sbiw	r24, 0x04	; 4
 15e:	24 f0       	brlt	.+8      	; 0x168 <ledOn+0x90>
		flag_on = 0;
 160:	10 92 11 01 	sts	0x0111, r1	; 0x800111 <flag_on+0x1>
 164:	10 92 10 01 	sts	0x0110, r1	; 0x800110 <flag_on>
 168:	08 95       	ret

0000016a <calcul_valoare_registru_ocr0a>:
}

void calcul_valoare_registru_ocr0a(){
 16a:	df 92       	push	r13
 16c:	ef 92       	push	r14
 16e:	ff 92       	push	r15
 170:	0f 93       	push	r16
 172:	1f 93       	push	r17
 174:	cf 93       	push	r28
 176:	df 93       	push	r29
 178:	cd b7       	in	r28, 0x3d	; 61
 17a:	de b7       	in	r29, 0x3e	; 62
 17c:	2a 97       	sbiw	r28, 0x0a	; 10
 17e:	0f b6       	in	r0, 0x3f	; 63
 180:	f8 94       	cli
 182:	de bf       	out	0x3e, r29	; 62
 184:	0f be       	out	0x3f, r0	; 63
 186:	cd bf       	out	0x3d, r28	; 61
	
	int frecventa_dorita = 1/GENERARE_INTRERUPERE;
	//int prescalar = 0;
	int frecventa_realizata = 0;
	int valoare_preferentiala = 0;	
	int valoare_prescalar[5] = { 1, 8, 64, 256, 1024};
 188:	8a e0       	ldi	r24, 0x0A	; 10
 18a:	e0 e0       	ldi	r30, 0x00	; 0
 18c:	f1 e0       	ldi	r31, 0x01	; 1
 18e:	de 01       	movw	r26, r28
 190:	11 96       	adiw	r26, 0x01	; 1
 192:	01 90       	ld	r0, Z+
 194:	0d 92       	st	X+, r0
 196:	8a 95       	dec	r24
 198:	e1 f7       	brne	.-8      	; 0x192 <calcul_valoare_registru_ocr0a+0x28>
	//uint8_t alegere_prescalar[5] = {TIMER_NO_PRESCALAR, TIMER_PRESCALAR_8, TIMER_PRESCALAR_64, TIMER_PRESCALAR_256, TIMER_PRESCALAR_1024};
	//array pentru prescalar -> nefunctional
	
	const int dimensiune = sizeof(valoare_prescalar)/sizeof(int);

	for(int i = 1; i <= dimensiune; i++) //pt fiecare element din valoare_prescalar[]
 19a:	01 e0       	ldi	r16, 0x01	; 1
 19c:	10 e0       	ldi	r17, 0x00	; 0
void calcul_valoare_registru_ocr0a(){
	
	int frecventa_dorita = 1/GENERARE_INTRERUPERE;
	//int prescalar = 0;
	int frecventa_realizata = 0;
	int valoare_preferentiala = 0;	
 19e:	d1 2c       	mov	r13, r1
	//uint8_t alegere_prescalar[5] = {TIMER_NO_PRESCALAR, TIMER_PRESCALAR_8, TIMER_PRESCALAR_64, TIMER_PRESCALAR_256, TIMER_PRESCALAR_1024};
	//array pentru prescalar -> nefunctional
	
	const int dimensiune = sizeof(valoare_prescalar)/sizeof(int);

	for(int i = 1; i <= dimensiune; i++) //pt fiecare element din valoare_prescalar[]
 1a0:	2d c0       	rjmp	.+90     	; 0x1fc <calcul_valoare_registru_ocr0a+0x92>
	{
		frecventa_realizata = 16000000/(VALOARE_TOP_REGISTRU*valoare_prescalar[i]);
 1a2:	f8 01       	movw	r30, r16
 1a4:	ee 0f       	add	r30, r30
 1a6:	ff 1f       	adc	r31, r31
 1a8:	81 e0       	ldi	r24, 0x01	; 1
 1aa:	90 e0       	ldi	r25, 0x00	; 0
 1ac:	8c 0f       	add	r24, r28
 1ae:	9d 1f       	adc	r25, r29
 1b0:	e8 0f       	add	r30, r24
 1b2:	f9 1f       	adc	r31, r25
 1b4:	e0 80       	ld	r14, Z
 1b6:	f1 80       	ldd	r15, Z+1	; 0x01
 1b8:	3e 2d       	mov	r19, r14
 1ba:	22 27       	eor	r18, r18
 1bc:	03 2e       	mov	r0, r19
 1be:	00 0c       	add	r0, r0
 1c0:	44 0b       	sbc	r20, r20
 1c2:	55 0b       	sbc	r21, r21
 1c4:	60 e0       	ldi	r22, 0x00	; 0
 1c6:	74 e2       	ldi	r23, 0x24	; 36
 1c8:	84 ef       	ldi	r24, 0xF4	; 244
 1ca:	90 e0       	ldi	r25, 0x00	; 0
 1cc:	0e 94 23 02 	call	0x446	; 0x446 <__divmodsi4>

		if(frecventa_realizata > frecventa_dorita)
 1d0:	2a 3f       	cpi	r18, 0xFA	; 250
 1d2:	31 05       	cpc	r19, r1
 1d4:	b4 f4       	brge	.+44     	; 0x202 <calcul_valoare_registru_ocr0a+0x98>
			break;	

		valoare_preferentiala = 16000000/(valoare_prescalar[i]*frecventa_dorita); //n
 1d6:	89 ef       	ldi	r24, 0xF9	; 249
 1d8:	8e 9d       	mul	r24, r14
 1da:	90 01       	movw	r18, r0
 1dc:	8f 9d       	mul	r24, r15
 1de:	30 0d       	add	r19, r0
 1e0:	11 24       	eor	r1, r1
 1e2:	03 2e       	mov	r0, r19
 1e4:	00 0c       	add	r0, r0
 1e6:	44 0b       	sbc	r20, r20
 1e8:	55 0b       	sbc	r21, r21
 1ea:	60 e0       	ldi	r22, 0x00	; 0
 1ec:	74 e2       	ldi	r23, 0x24	; 36
 1ee:	84 ef       	ldi	r24, 0xF4	; 244
 1f0:	90 e0       	ldi	r25, 0x00	; 0
 1f2:	0e 94 23 02 	call	0x446	; 0x446 <__divmodsi4>
 1f6:	d2 2e       	mov	r13, r18
	//uint8_t alegere_prescalar[5] = {TIMER_NO_PRESCALAR, TIMER_PRESCALAR_8, TIMER_PRESCALAR_64, TIMER_PRESCALAR_256, TIMER_PRESCALAR_1024};
	//array pentru prescalar -> nefunctional
	
	const int dimensiune = sizeof(valoare_prescalar)/sizeof(int);

	for(int i = 1; i <= dimensiune; i++) //pt fiecare element din valoare_prescalar[]
 1f8:	0f 5f       	subi	r16, 0xFF	; 255
 1fa:	1f 4f       	sbci	r17, 0xFF	; 255
 1fc:	06 30       	cpi	r16, 0x06	; 6
 1fe:	11 05       	cpc	r17, r1
 200:	84 f2       	brlt	.-96     	; 0x1a2 <calcul_valoare_registru_ocr0a+0x38>

	TCCR0B |= TIMER_PRESCALAR_256;				//doar asa merge
	TCCR0B |= alegere_prescalar[prescalar];
	
/---------------------------------------------------------------------------------------*/
	OCR0A = valoare_preferentiala - 1;
 202:	da 94       	dec	r13
 204:	d7 bc       	out	0x27, r13	; 39
}
 206:	2a 96       	adiw	r28, 0x0a	; 10
 208:	0f b6       	in	r0, 0x3f	; 63
 20a:	f8 94       	cli
 20c:	de bf       	out	0x3e, r29	; 62
 20e:	0f be       	out	0x3f, r0	; 63
 210:	cd bf       	out	0x3d, r28	; 61
 212:	df 91       	pop	r29
 214:	cf 91       	pop	r28
 216:	1f 91       	pop	r17
 218:	0f 91       	pop	r16
 21a:	ff 90       	pop	r15
 21c:	ef 90       	pop	r14
 21e:	df 90       	pop	r13
 220:	08 95       	ret

00000222 <__vector_14>:

ISR(TIMER0_COMPA_vect){  //pt caz general
 222:	1f 92       	push	r1
 224:	0f 92       	push	r0
 226:	0f b6       	in	r0, 0x3f	; 63
 228:	0f 92       	push	r0
 22a:	11 24       	eor	r1, r1
 22c:	2f 93       	push	r18
 22e:	3f 93       	push	r19
 230:	4f 93       	push	r20
 232:	5f 93       	push	r21
 234:	6f 93       	push	r22
 236:	7f 93       	push	r23
 238:	8f 93       	push	r24
 23a:	9f 93       	push	r25
 23c:	af 93       	push	r26
 23e:	bf 93       	push	r27
 240:	ef 93       	push	r30
 242:	ff 93       	push	r31
	
	cli();
 244:	f8 94       	cli
	
	contor_secunde++;
 246:	60 91 0e 01 	lds	r22, 0x010E	; 0x80010e <contor_secunde>
 24a:	70 91 0f 01 	lds	r23, 0x010F	; 0x80010f <contor_secunde+0x1>
 24e:	6f 5f       	subi	r22, 0xFF	; 255
 250:	7f 4f       	sbci	r23, 0xFF	; 255
 252:	70 93 0f 01 	sts	0x010F, r23	; 0x80010f <contor_secunde+0x1>
 256:	60 93 0e 01 	sts	0x010E, r22	; 0x80010e <contor_secunde>
	
	if(contor_secunde >= (1/GENERARE_INTRERUPERE))
 25a:	07 2e       	mov	r0, r23
 25c:	00 0c       	add	r0, r0
 25e:	88 0b       	sbc	r24, r24
 260:	99 0b       	sbc	r25, r25
 262:	0e 94 bf 01 	call	0x37e	; 0x37e <__floatsisf>
 266:	2f ef       	ldi	r18, 0xFF	; 255
 268:	3f ef       	ldi	r19, 0xFF	; 255
 26a:	49 e7       	ldi	r20, 0x79	; 121
 26c:	53 e4       	ldi	r21, 0x43	; 67
 26e:	0e 94 fa 01 	call	0x3f4	; 0x3f4 <__gesf2>
 272:	88 23       	and	r24, r24
 274:	6c f0       	brlt	.+26     	; 0x290 <__vector_14+0x6e>
	{	
		secunde++;
 276:	80 91 0a 01 	lds	r24, 0x010A	; 0x80010a <__data_end>
 27a:	90 91 0b 01 	lds	r25, 0x010B	; 0x80010b <__data_end+0x1>
 27e:	01 96       	adiw	r24, 0x01	; 1
 280:	90 93 0b 01 	sts	0x010B, r25	; 0x80010b <__data_end+0x1>
 284:	80 93 0a 01 	sts	0x010A, r24	; 0x80010a <__data_end>
		contor_secunde = 0;
 288:	10 92 0f 01 	sts	0x010F, r1	; 0x80010f <contor_secunde+0x1>
 28c:	10 92 0e 01 	sts	0x010E, r1	; 0x80010e <contor_secunde>
	}
	
	sei();
 290:	78 94       	sei
}
 292:	ff 91       	pop	r31
 294:	ef 91       	pop	r30
 296:	bf 91       	pop	r27
 298:	af 91       	pop	r26
 29a:	9f 91       	pop	r25
 29c:	8f 91       	pop	r24
 29e:	7f 91       	pop	r23
 2a0:	6f 91       	pop	r22
 2a2:	5f 91       	pop	r21
 2a4:	4f 91       	pop	r20
 2a6:	3f 91       	pop	r19
 2a8:	2f 91       	pop	r18
 2aa:	0f 90       	pop	r0
 2ac:	0f be       	out	0x3f, r0	; 63
 2ae:	0f 90       	pop	r0
 2b0:	1f 90       	pop	r1
 2b2:	18 95       	reti

000002b4 <__vector_1>:

ISR(INT0_vect){		     //intrerupere pt butonul de on
 2b4:	1f 92       	push	r1
 2b6:	0f 92       	push	r0
 2b8:	0f b6       	in	r0, 0x3f	; 63
 2ba:	0f 92       	push	r0
 2bc:	11 24       	eor	r1, r1
 2be:	8f 93       	push	r24
 2c0:	9f 93       	push	r25
	
	cli();
 2c2:	f8 94       	cli
	
	flag_on = 1;	     //LED-uri on
 2c4:	81 e0       	ldi	r24, 0x01	; 1
 2c6:	90 e0       	ldi	r25, 0x00	; 0
 2c8:	90 93 11 01 	sts	0x0111, r25	; 0x800111 <flag_on+0x1>
 2cc:	80 93 10 01 	sts	0x0110, r24	; 0x800110 <flag_on>
	contor_on = secunde; //determinarea timpului la care a fost apasat butonul
 2d0:	80 91 0a 01 	lds	r24, 0x010A	; 0x80010a <__data_end>
 2d4:	90 91 0b 01 	lds	r25, 0x010B	; 0x80010b <__data_end+0x1>
 2d8:	90 93 0d 01 	sts	0x010D, r25	; 0x80010d <contor_on+0x1>
 2dc:	80 93 0c 01 	sts	0x010C, r24	; 0x80010c <contor_on>
	
	sei();
 2e0:	78 94       	sei
}
 2e2:	9f 91       	pop	r25
 2e4:	8f 91       	pop	r24
 2e6:	0f 90       	pop	r0
 2e8:	0f be       	out	0x3f, r0	; 63
 2ea:	0f 90       	pop	r0
 2ec:	1f 90       	pop	r1
 2ee:	18 95       	reti

000002f0 <__vector_2>:

ISR(INT1_vect){		//intrerupere pt butonul de off
 2f0:	1f 92       	push	r1
 2f2:	0f 92       	push	r0
 2f4:	0f b6       	in	r0, 0x3f	; 63
 2f6:	0f 92       	push	r0
 2f8:	11 24       	eor	r1, r1
	
	cli();
 2fa:	f8 94       	cli
	
	flag_on = 0;	//LED-uri off
 2fc:	10 92 11 01 	sts	0x0111, r1	; 0x800111 <flag_on+0x1>
 300:	10 92 10 01 	sts	0x0110, r1	; 0x800110 <flag_on>
	
	sei();
 304:	78 94       	sei
}
 306:	0f 90       	pop	r0
 308:	0f be       	out	0x3f, r0	; 63
 30a:	0f 90       	pop	r0
 30c:	1f 90       	pop	r1
 30e:	18 95       	reti

00000310 <port_init>:

#include <stdio.h>

void port_init(void){
	
	DDRB = 0x0F;	//00001111
 310:	8f e0       	ldi	r24, 0x0F	; 15
 312:	84 b9       	out	0x04, r24	; 4
	PORTB = 0x00;
 314:	15 b8       	out	0x05, r1	; 5
	DDRD |= (1 << PIND2) | (1 << PIND3);  //INT0 & INT1
 316:	8a b1       	in	r24, 0x0a	; 10
 318:	8c 60       	ori	r24, 0x0C	; 12
 31a:	8a b9       	out	0x0a, r24	; 10
	PORTD |= (1 << PIND2) | (1 << PIND3);
 31c:	8b b1       	in	r24, 0x0b	; 11
 31e:	8c 60       	ori	r24, 0x0C	; 12
 320:	8b b9       	out	0x0b, r24	; 11
 322:	08 95       	ret

00000324 <timer0_init>:
}

void timer0_init(void){
	
	TCCR0A |= (1 << WGM01) | (0 << WGM00);  //modul CTC
 324:	84 b5       	in	r24, 0x24	; 36
 326:	82 60       	ori	r24, 0x02	; 2
 328:	84 bd       	out	0x24, r24	; 36
	
	calcul_valoare_registru_ocr0a();	//OCR0A
 32a:	0e 94 b5 00 	call	0x16a	; 0x16a <calcul_valoare_registru_ocr0a>
	
	TCCR0B |= TIMER_PRESCALAR_256;		//prescalar ales pt valoarea 0.004s (vezi main_defines.h)
 32e:	85 b5       	in	r24, 0x25	; 37
 330:	84 60       	ori	r24, 0x04	; 4
 332:	85 bd       	out	0x25, r24	; 37
	TIMSK0 |= (1 << OCIE0A);
 334:	ee e6       	ldi	r30, 0x6E	; 110
 336:	f0 e0       	ldi	r31, 0x00	; 0
 338:	80 81       	ld	r24, Z
 33a:	82 60       	ori	r24, 0x02	; 2
 33c:	80 83       	st	Z, r24
 33e:	08 95       	ret

00000340 <interrupt_init>:
}

void interrupt_init(void){
	
	EICRA |= (1 << ISC11) | (1 << ISC10) | (1 << ISC01) | (1 << ISC00);
 340:	e9 e6       	ldi	r30, 0x69	; 105
 342:	f0 e0       	ldi	r31, 0x00	; 0
 344:	80 81       	ld	r24, Z
 346:	8f 60       	ori	r24, 0x0F	; 15
 348:	80 83       	st	Z, r24
	EIMSK |= (1 << INT1) | (1 << INT0);
 34a:	8d b3       	in	r24, 0x1d	; 29
 34c:	83 60       	ori	r24, 0x03	; 3
 34e:	8d bb       	out	0x1d, r24	; 29
	EIFR |= (0 << INTF1) | (0 << INTF0);
 350:	8c b3       	in	r24, 0x1c	; 28
 352:	8c bb       	out	0x1c, r24	; 28
	PCICR |= (0 << PCIE2) | (0 << PCIE1) | (0 << PCIE0);
 354:	e8 e6       	ldi	r30, 0x68	; 104
 356:	f0 e0       	ldi	r31, 0x00	; 0
 358:	80 81       	ld	r24, Z
 35a:	80 83       	st	Z, r24
 35c:	08 95       	ret

0000035e <init_devices>:
}

void init_devices(void){
	
	cli();
 35e:	f8 94       	cli
	
	port_init();
 360:	0e 94 88 01 	call	0x310	; 0x310 <port_init>
	interrupt_init();
 364:	0e 94 a0 01 	call	0x340	; 0x340 <interrupt_init>
	timer0_init();
 368:	0e 94 92 01 	call	0x324	; 0x324 <timer0_init>
	
	sei();
 36c:	78 94       	sei
 36e:	08 95       	ret

00000370 <main>:
#include <avr/interrupt.h>
#include <util/delay.h>

int main(void){
	
	init_devices();	//porturi, timer, intreruperi
 370:	0e 94 af 01 	call	0x35e	; 0x35e <init_devices>
					      
	do
	{
		ledOn();	
 374:	0e 94 6c 00 	call	0xd8	; 0xd8 <ledOn>
 378:	fd cf       	rjmp	.-6      	; 0x374 <main+0x4>

0000037a <__floatunsisf>:
 37a:	e8 94       	clt
 37c:	09 c0       	rjmp	.+18     	; 0x390 <__floatsisf+0x12>

0000037e <__floatsisf>:
 37e:	97 fb       	bst	r25, 7
 380:	3e f4       	brtc	.+14     	; 0x390 <__floatsisf+0x12>
 382:	90 95       	com	r25
 384:	80 95       	com	r24
 386:	70 95       	com	r23
 388:	61 95       	neg	r22
 38a:	7f 4f       	sbci	r23, 0xFF	; 255
 38c:	8f 4f       	sbci	r24, 0xFF	; 255
 38e:	9f 4f       	sbci	r25, 0xFF	; 255
 390:	99 23       	and	r25, r25
 392:	a9 f0       	breq	.+42     	; 0x3be <__floatsisf+0x40>
 394:	f9 2f       	mov	r31, r25
 396:	96 e9       	ldi	r25, 0x96	; 150
 398:	bb 27       	eor	r27, r27
 39a:	93 95       	inc	r25
 39c:	f6 95       	lsr	r31
 39e:	87 95       	ror	r24
 3a0:	77 95       	ror	r23
 3a2:	67 95       	ror	r22
 3a4:	b7 95       	ror	r27
 3a6:	f1 11       	cpse	r31, r1
 3a8:	f8 cf       	rjmp	.-16     	; 0x39a <__floatsisf+0x1c>
 3aa:	fa f4       	brpl	.+62     	; 0x3ea <__floatsisf+0x6c>
 3ac:	bb 0f       	add	r27, r27
 3ae:	11 f4       	brne	.+4      	; 0x3b4 <__floatsisf+0x36>
 3b0:	60 ff       	sbrs	r22, 0
 3b2:	1b c0       	rjmp	.+54     	; 0x3ea <__floatsisf+0x6c>
 3b4:	6f 5f       	subi	r22, 0xFF	; 255
 3b6:	7f 4f       	sbci	r23, 0xFF	; 255
 3b8:	8f 4f       	sbci	r24, 0xFF	; 255
 3ba:	9f 4f       	sbci	r25, 0xFF	; 255
 3bc:	16 c0       	rjmp	.+44     	; 0x3ea <__floatsisf+0x6c>
 3be:	88 23       	and	r24, r24
 3c0:	11 f0       	breq	.+4      	; 0x3c6 <__floatsisf+0x48>
 3c2:	96 e9       	ldi	r25, 0x96	; 150
 3c4:	11 c0       	rjmp	.+34     	; 0x3e8 <__floatsisf+0x6a>
 3c6:	77 23       	and	r23, r23
 3c8:	21 f0       	breq	.+8      	; 0x3d2 <__floatsisf+0x54>
 3ca:	9e e8       	ldi	r25, 0x8E	; 142
 3cc:	87 2f       	mov	r24, r23
 3ce:	76 2f       	mov	r23, r22
 3d0:	05 c0       	rjmp	.+10     	; 0x3dc <__floatsisf+0x5e>
 3d2:	66 23       	and	r22, r22
 3d4:	71 f0       	breq	.+28     	; 0x3f2 <__floatsisf+0x74>
 3d6:	96 e8       	ldi	r25, 0x86	; 134
 3d8:	86 2f       	mov	r24, r22
 3da:	70 e0       	ldi	r23, 0x00	; 0
 3dc:	60 e0       	ldi	r22, 0x00	; 0
 3de:	2a f0       	brmi	.+10     	; 0x3ea <__floatsisf+0x6c>
 3e0:	9a 95       	dec	r25
 3e2:	66 0f       	add	r22, r22
 3e4:	77 1f       	adc	r23, r23
 3e6:	88 1f       	adc	r24, r24
 3e8:	da f7       	brpl	.-10     	; 0x3e0 <__floatsisf+0x62>
 3ea:	88 0f       	add	r24, r24
 3ec:	96 95       	lsr	r25
 3ee:	87 95       	ror	r24
 3f0:	97 f9       	bld	r25, 7
 3f2:	08 95       	ret

000003f4 <__gesf2>:
 3f4:	0e 94 ff 01 	call	0x3fe	; 0x3fe <__fp_cmp>
 3f8:	08 f4       	brcc	.+2      	; 0x3fc <__gesf2+0x8>
 3fa:	8f ef       	ldi	r24, 0xFF	; 255
 3fc:	08 95       	ret

000003fe <__fp_cmp>:
 3fe:	99 0f       	add	r25, r25
 400:	00 08       	sbc	r0, r0
 402:	55 0f       	add	r21, r21
 404:	aa 0b       	sbc	r26, r26
 406:	e0 e8       	ldi	r30, 0x80	; 128
 408:	fe ef       	ldi	r31, 0xFE	; 254
 40a:	16 16       	cp	r1, r22
 40c:	17 06       	cpc	r1, r23
 40e:	e8 07       	cpc	r30, r24
 410:	f9 07       	cpc	r31, r25
 412:	c0 f0       	brcs	.+48     	; 0x444 <__EEPROM_REGION_LENGTH__+0x44>
 414:	12 16       	cp	r1, r18
 416:	13 06       	cpc	r1, r19
 418:	e4 07       	cpc	r30, r20
 41a:	f5 07       	cpc	r31, r21
 41c:	98 f0       	brcs	.+38     	; 0x444 <__EEPROM_REGION_LENGTH__+0x44>
 41e:	62 1b       	sub	r22, r18
 420:	73 0b       	sbc	r23, r19
 422:	84 0b       	sbc	r24, r20
 424:	95 0b       	sbc	r25, r21
 426:	39 f4       	brne	.+14     	; 0x436 <__EEPROM_REGION_LENGTH__+0x36>
 428:	0a 26       	eor	r0, r26
 42a:	61 f0       	breq	.+24     	; 0x444 <__EEPROM_REGION_LENGTH__+0x44>
 42c:	23 2b       	or	r18, r19
 42e:	24 2b       	or	r18, r20
 430:	25 2b       	or	r18, r21
 432:	21 f4       	brne	.+8      	; 0x43c <__EEPROM_REGION_LENGTH__+0x3c>
 434:	08 95       	ret
 436:	0a 26       	eor	r0, r26
 438:	09 f4       	brne	.+2      	; 0x43c <__EEPROM_REGION_LENGTH__+0x3c>
 43a:	a1 40       	sbci	r26, 0x01	; 1
 43c:	a6 95       	lsr	r26
 43e:	8f ef       	ldi	r24, 0xFF	; 255
 440:	81 1d       	adc	r24, r1
 442:	81 1d       	adc	r24, r1
 444:	08 95       	ret

00000446 <__divmodsi4>:
 446:	05 2e       	mov	r0, r21
 448:	97 fb       	bst	r25, 7
 44a:	1e f4       	brtc	.+6      	; 0x452 <__divmodsi4+0xc>
 44c:	00 94       	com	r0
 44e:	0e 94 3a 02 	call	0x474	; 0x474 <__negsi2>
 452:	57 fd       	sbrc	r21, 7
 454:	07 d0       	rcall	.+14     	; 0x464 <__divmodsi4_neg2>
 456:	0e 94 42 02 	call	0x484	; 0x484 <__udivmodsi4>
 45a:	07 fc       	sbrc	r0, 7
 45c:	03 d0       	rcall	.+6      	; 0x464 <__divmodsi4_neg2>
 45e:	4e f4       	brtc	.+18     	; 0x472 <__divmodsi4_exit>
 460:	0c 94 3a 02 	jmp	0x474	; 0x474 <__negsi2>

00000464 <__divmodsi4_neg2>:
 464:	50 95       	com	r21
 466:	40 95       	com	r20
 468:	30 95       	com	r19
 46a:	21 95       	neg	r18
 46c:	3f 4f       	sbci	r19, 0xFF	; 255
 46e:	4f 4f       	sbci	r20, 0xFF	; 255
 470:	5f 4f       	sbci	r21, 0xFF	; 255

00000472 <__divmodsi4_exit>:
 472:	08 95       	ret

00000474 <__negsi2>:
 474:	90 95       	com	r25
 476:	80 95       	com	r24
 478:	70 95       	com	r23
 47a:	61 95       	neg	r22
 47c:	7f 4f       	sbci	r23, 0xFF	; 255
 47e:	8f 4f       	sbci	r24, 0xFF	; 255
 480:	9f 4f       	sbci	r25, 0xFF	; 255
 482:	08 95       	ret

00000484 <__udivmodsi4>:
 484:	a1 e2       	ldi	r26, 0x21	; 33
 486:	1a 2e       	mov	r1, r26
 488:	aa 1b       	sub	r26, r26
 48a:	bb 1b       	sub	r27, r27
 48c:	fd 01       	movw	r30, r26
 48e:	0d c0       	rjmp	.+26     	; 0x4aa <__udivmodsi4_ep>

00000490 <__udivmodsi4_loop>:
 490:	aa 1f       	adc	r26, r26
 492:	bb 1f       	adc	r27, r27
 494:	ee 1f       	adc	r30, r30
 496:	ff 1f       	adc	r31, r31
 498:	a2 17       	cp	r26, r18
 49a:	b3 07       	cpc	r27, r19
 49c:	e4 07       	cpc	r30, r20
 49e:	f5 07       	cpc	r31, r21
 4a0:	20 f0       	brcs	.+8      	; 0x4aa <__udivmodsi4_ep>
 4a2:	a2 1b       	sub	r26, r18
 4a4:	b3 0b       	sbc	r27, r19
 4a6:	e4 0b       	sbc	r30, r20
 4a8:	f5 0b       	sbc	r31, r21

000004aa <__udivmodsi4_ep>:
 4aa:	66 1f       	adc	r22, r22
 4ac:	77 1f       	adc	r23, r23
 4ae:	88 1f       	adc	r24, r24
 4b0:	99 1f       	adc	r25, r25
 4b2:	1a 94       	dec	r1
 4b4:	69 f7       	brne	.-38     	; 0x490 <__udivmodsi4_loop>
 4b6:	60 95       	com	r22
 4b8:	70 95       	com	r23
 4ba:	80 95       	com	r24
 4bc:	90 95       	com	r25
 4be:	9b 01       	movw	r18, r22
 4c0:	ac 01       	movw	r20, r24
 4c2:	bd 01       	movw	r22, r26
 4c4:	cf 01       	movw	r24, r30
 4c6:	08 95       	ret

000004c8 <_exit>:
 4c8:	f8 94       	cli

000004ca <__stop_program>:
 4ca:	ff cf       	rjmp	.-2      	; 0x4ca <__stop_program>
